target datalayout = "e-m:e-p270:32:32-p271:32:32-p272:64:64-i64:64-i128:128-f80:128-n8:16:32:64-S128"
target triple = "x86_64-pc-linux-gnu"

@.str.71 = private unnamed_addr constant [12 x i8] c"0123456789.\00", align 1

; Function Attrs: nounwind sspstrong uwtable
define internal i64 @local__parse_ms_(ptr noundef %0, i32 noundef %1) #0 {
  %3 = alloca i64, align 8
  %4 = alloca ptr, align 8
  %5 = alloca i32, align 4
  %6 = alloca i64, align 8
  %7 = alloca i64, align 8
  %8 = alloca double, align 8
  %9 = alloca i8, align 1
  %10 = alloca ptr, align 8
  %11 = alloca i32, align 4
  store ptr %0, ptr %4, align 8, !tbaa !19
  store i32 %1, ptr %5, align 4, !tbaa !4
  call void @llvm.lifetime.start.p0(i64 8, ptr %6) #8
  call void @llvm.lifetime.start.p0(i64 8, ptr %7) #8
  call void @llvm.lifetime.start.p0(i64 8, ptr %8) #8
  call void @llvm.lifetime.start.p0(i64 1, ptr %9) #8
  call void @llvm.lifetime.start.p0(i64 8, ptr %10) #8
  %12 = load i32, ptr %5, align 4, !tbaa !4
  %13 = icmp eq i32 %12, 0
  br i1 %13, label %14, label %15

14:                                               ; preds = %2
  store i64 -1, ptr %3, align 8
  store i32 1, ptr %11, align 4
  br label %110

15:                                               ; preds = %2
  %16 = load ptr, ptr %4, align 8, !tbaa !19
  %17 = getelementptr inbounds nuw i8, ptr %16, i32 1
  store ptr %17, ptr %4, align 8, !tbaa !19
  %18 = load i8, ptr %16, align 1, !tbaa !25
  store i8 %18, ptr %9, align 1, !tbaa !25
  %19 = load i8, ptr %9, align 1, !tbaa !25
  %20 = sext i8 %19 to i32
  %21 = icmp sge i32 %20, 48
  br i1 %21, label %22, label %31

22:                                               ; preds = %15
  %23 = load i8, ptr %9, align 1, !tbaa !25
  %24 = sext i8 %23 to i32
  %25 = icmp sle i32 %24, 57
  br i1 %25, label %26, label %31

26:                                               ; preds = %22
  %27 = load i8, ptr %9, align 1, !tbaa !25
  %28 = sext i8 %27 to i32
  %29 = sub nsw i32 %28, 48
  %30 = sext i32 %29 to i64
  store i64 %30, ptr %7, align 8, !tbaa !15
  br label %32

31:                                               ; preds = %22, %15
  store i64 -1, ptr %3, align 8
  store i32 1, ptr %11, align 4
  br label %110

32:                                               ; preds = %26
  br label %33

33:                                               ; preds = %61, %32
  %34 = load ptr, ptr %4, align 8, !tbaa !19
  %35 = getelementptr inbounds nuw i8, ptr %34, i32 1
  store ptr %35, ptr %4, align 8, !tbaa !19
  %36 = load i8, ptr %34, align 1, !tbaa !25
  store i8 %36, ptr %9, align 1, !tbaa !25
  %37 = sext i8 %36 to i32
  %38 = icmp ne i32 58, %37
  br i1 %38, label %39, label %62

39:                                               ; preds = %33
  %40 = load i8, ptr %9, align 1, !tbaa !25
  %41 = sext i8 %40 to i32
  %42 = icmp sge i32 %41, 48
  br i1 %42, label %43, label %60

43:                                               ; preds = %39
  %44 = load i8, ptr %9, align 1, !tbaa !25
  %45 = sext i8 %44 to i32
  %46 = icmp sle i32 %45, 57
  br i1 %46, label %47, label %60

47:                                               ; preds = %43
  %48 = load i64, ptr %7, align 8, !tbaa !15
  %49 = icmp sge i64 %48, 922337203685477580
  br i1 %49, label %50, label %51

50:                                               ; preds = %47
  store i64 -1, ptr %3, align 8
  store i32 1, ptr %11, align 4
  br label %110

51:                                               ; preds = %47
  %52 = load i64, ptr %7, align 8, !tbaa !15
  %53 = mul nsw i64 %52, 10
  %54 = load i8, ptr %9, align 1, !tbaa !25
  %55 = sext i8 %54 to i32
  %56 = sub nsw i32 %55, 48
  %57 = sext i32 %56 to i64
  %58 = add nsw i64 %53, %57
  store i64 %58, ptr %7, align 8, !tbaa !15
  br label %59

59:                                               ; preds = %51
  br label %61

60:                                               ; preds = %43, %39
  store i64 -1, ptr %3, align 8
  store i32 1, ptr %11, align 4
  br label %110

61:                                               ; preds = %59
  br label %33, !llvm.loop !45

62:                                               ; preds = %33
  %63 = load i64, ptr %7, align 8, !tbaa !15
  %64 = load i32, ptr %5, align 4, !tbaa !4
  %65 = mul i32 60, %64
  %66 = zext i32 %65 to i64
  %67 = sdiv i64 9223372036854775807, %66
  %68 = icmp sge i64 %63, %67
  br i1 %68, label %69, label %70

69:                                               ; preds = %62
  store i64 -1, ptr %3, align 8
  store i32 1, ptr %11, align 4
  br label %110

70:                                               ; preds = %62
  %71 = load i64, ptr %7, align 8, !tbaa !15
  %72 = mul nsw i64 %71, 60
  %73 = load i32, ptr %5, align 4, !tbaa !4
  %74 = zext i32 %73 to i64
  %75 = mul nsw i64 %72, %74
  store i64 %75, ptr %6, align 8, !tbaa !15
  %76 = load ptr, ptr %4, align 8, !tbaa !19
  %77 = call i64 @strspn(ptr noundef %76, ptr noundef @.str.71) #9
  %78 = load ptr, ptr %4, align 8, !tbaa !19
  %79 = call i64 @strlen(ptr noundef %78) #9
  %80 = icmp ne i64 %77, %79
  br i1 %80, label %81, label %82

81:                                               ; preds = %70
  store i64 -1, ptr %3, align 8
  store i32 1, ptr %11, align 4
  br label %110

82:                                               ; preds = %70
  %83 = load ptr, ptr %4, align 8, !tbaa !19
  %84 = call double @strtod(ptr noundef %83, ptr noundef %10) #8
  store double %84, ptr %8, align 8, !tbaa !46
  %85 = load ptr, ptr %10, align 8, !tbaa !19
  %86 = load i8, ptr %85, align 1, !tbaa !25
  %87 = sext i8 %86 to i32
  %88 = icmp ne i32 %87, 0
  br i1 %88, label %93, label %89

89:                                               ; preds = %82
  %90 = load ptr, ptr %10, align 8, !tbaa !19
  %91 = load ptr, ptr %4, align 8, !tbaa !19
  %92 = icmp eq ptr %90, %91
  br i1 %92, label %93, label %94

93:                                               ; preds = %89, %82
  store i64 -1, ptr %3, align 8
  store i32 1, ptr %11, align 4
  br label %110

94:                                               ; preds = %89
  %95 = load double, ptr %8, align 8, !tbaa !46
  %96 = fcmp olt double %95, 0.000000e+00
  br i1 %96, label %100, label %97

97:                                               ; preds = %94
  %98 = load double, ptr %8, align 8, !tbaa !46
  %99 = fcmp oge double %98, 6.000000e+01
  br i1 %99, label %100, label %101

100:                                              ; preds = %97, %94
  store i64 -1, ptr %3, align 8
  store i32 1, ptr %11, align 4
  br label %110

101:                                              ; preds = %97
  %102 = load double, ptr %8, align 8, !tbaa !46
  %103 = load i32, ptr %5, align 4, !tbaa !4
  %104 = uitofp i32 %103 to double
  %105 = fmul double %102, %104
  %106 = fptosi double %105 to i64
  %107 = load i64, ptr %6, align 8, !tbaa !15
  %108 = add nsw i64 %107, %106
  store i64 %108, ptr %6, align 8, !tbaa !15
  %109 = load i64, ptr %6, align 8, !tbaa !15
  store i64 %109, ptr %3, align 8
  store i32 1, ptr %11, align 4
  br label %110

110:                                              ; preds = %101, %100, %93, %81, %69, %60, %50, %31, %14
  call void @llvm.lifetime.end.p0(i64 8, ptr %10) #8
  call void @llvm.lifetime.end.p0(i64 1, ptr %9) #8
  call void @llvm.lifetime.end.p0(i64 8, ptr %8) #8
  call void @llvm.lifetime.end.p0(i64 8, ptr %7) #8
  call void @llvm.lifetime.end.p0(i64 8, ptr %6) #8
  %111 = load i64, ptr %3, align 8
  ret i64 %111
}