; Function Attrs: nofree nounwind sspstrong uwtable
define internal fastcc i64 @local__parse_ms_(ptr noundef nonnull %0, i32 noundef %1) unnamed_addr #10 {
  %3 = alloca ptr, align 8
  call void @llvm.lifetime.start.p0(i64 8, ptr nonnull %3) #13
  %4 = icmp eq i32 %1, 0
  br i1 %4, label %.loopexit, label %5

5:                                                ; preds = %2
  %6 = load i8, ptr %0, align 1, !tbaa !15
  %7 = add i8 %6, -48
  %or.cond = icmp ult i8 %7, 10
  br i1 %or.cond, label %8, label %.loopexit

8:                                                ; preds = %5
  %9 = getelementptr inbounds nuw i8, ptr %0, i64 1
  %10 = and i8 %6, 15
  %11 = zext nneg i8 %10 to i64
  %12 = getelementptr inbounds nuw i8, ptr %0, i64 2
  %13 = load i8, ptr %9, align 1, !tbaa !15
  %.not45 = icmp eq i8 %13, 58
  br i1 %.not45, label %._crit_edge, label %.lr.ph

.lr.ph:                                           ; preds = %8, %18
  %14 = phi i8 [ %23, %18 ], [ %13, %8 ]
  %15 = phi ptr [ %22, %18 ], [ %12, %8 ]
  %.03246 = phi i64 [ %21, %18 ], [ %11, %8 ]
  %16 = add i8 %14, -48
  %or.cond5 = icmp ugt i8 %16, 9
  %17 = icmp sgt i64 %.03246, 922337203685477579
  %or.cond42 = select i1 %or.cond5, i1 true, i1 %17
  br i1 %or.cond42, label %.loopexit, label %18

18:                                               ; preds = %.lr.ph
  %19 = mul nsw i64 %.03246, 10
  %20 = zext nneg i8 %16 to i64
  %21 = add nsw i64 %19, %20
  %22 = getelementptr inbounds nuw i8, ptr %15, i64 1
  %23 = load i8, ptr %15, align 1, !tbaa !15
  %.not = icmp eq i8 %23, 58
  br i1 %.not, label %._crit_edge, label %.lr.ph, !llvm.loop !36

._crit_edge:                                      ; preds = %18, %8
  %.032.lcssa = phi i64 [ %11, %8 ], [ %21, %18 ]
  %.lcssa = phi ptr [ %12, %8 ], [ %22, %18 ]
  %24 = mul i32 %1, 60
  %25 = zext i32 %24 to i64
  %26 = udiv i64 9223372036854775807, %25
  %.not38 = icmp slt i64 %.032.lcssa, %26
  br i1 %.not38, label %27, label %.loopexit

27:                                               ; preds = %._crit_edge
  %28 = zext i32 %1 to i64
  %29 = mul nuw nsw i64 %28, 60
  %30 = mul i64 %29, %.032.lcssa
  %31 = tail call i64 @strspn(ptr noundef nonnull %.lcssa, ptr noundef nonnull @.str.71) #14
  %32 = tail call i64 @strlen(ptr noundef nonnull dereferenceable(1) %.lcssa) #14
  %.not39 = icmp eq i64 %31, %32
  br i1 %.not39, label %33, label %.loopexit

33:                                               ; preds = %27
  %34 = call double @strtod(ptr noundef nonnull %.lcssa, ptr noundef nonnull %3) #13
  %35 = load ptr, ptr %3, align 8, !tbaa !8
  %36 = load i8, ptr %35, align 1, !tbaa !15
  %.not40 = icmp ne i8 %36, 0
  %37 = icmp eq ptr %35, %.lcssa
  %or.cond41 = select i1 %.not40, i1 true, i1 %37
  br i1 %or.cond41, label %.loopexit, label %38

38:                                               ; preds = %33
  %39 = fcmp olt double %34, 0.000000e+00
  %40 = fcmp oge double %34, 6.000000e+01
  %or.cond7 = or i1 %39, %40
  br i1 %or.cond7, label %.loopexit, label %41

41:                                               ; preds = %38
  %42 = uitofp i32 %1 to double
  %43 = fmul double %34, %42
  %44 = fptosi double %43 to i64
  %45 = add nsw i64 %30, %44
  br label %.loopexit

.loopexit:                                        ; preds = %.lr.ph, %38, %33, %27, %._crit_edge, %5, %2, %41
  %.0 = phi i64 [ %45, %41 ], [ -1, %2 ], [ -1, %5 ], [ -1, %._crit_edge ], [ -1, %27 ], [ -1, %33 ], [ -1, %38 ], [ -1, %.lr.ph ]
  call void @llvm.lifetime.end.p0(i64 8, ptr nonnull %3) #13
  ret i64 %.0
}